target datalayout = "e-m:e-p270:32:32-p271:32:32-p272:64:64-i64:64-i128:128-f80:128-n8:16:32:64-S128"
target triple = "x86_64-pc-linux-gnu"

%struct.wtap_packet_header = type { i32, i32, i32, i32, %union.wtap_pseudo_header }
%union.wtap_pseudo_header = type { %struct.erf_mc_phdr }
%struct.erf_mc_phdr = type { %struct.erf_phdr, [16 x %struct.erf_ehdr], %union.anon.1 }
%struct.erf_phdr = type { i64, i8, i8, i16, i16, i16 }
%struct.erf_ehdr = type { i64 }
%union.anon.1 = type { i32 }

; Function Attrs: alwaysinline nounwind
define internal ptr @memset.inline(ptr %0, i32 %1, i64 %2) #5 {
  %4 = alloca ptr, align 8
  %5 = alloca i32, align 4
  %6 = alloca i64, align 8
  store ptr %0, ptr %4, align 8
  store i32 %1, ptr %5, align 4
  store i64 %2, ptr %6, align 8
  %7 = load ptr, ptr %4, align 8
  %8 = load i32, ptr %5, align 4
  %9 = load i64, ptr %6, align 8
  %10 = load ptr, ptr %4, align 8
  %11 = call i64 @llvm.objectsize.i64.p0(ptr %10, i1 false, i1 true, i1 true)
  %12 = call ptr @__memset_chk(ptr noundef %7, i32 noundef %8, i64 noundef %9, i64 noundef %11) #14
  ret ptr %12
}

; Function Attrs: inlinehint nounwind null_pointer_is_valid sspstrong uwtable
define internal zeroext i16 @pntoh16(ptr noundef %0) #12 {
  %2 = alloca ptr, align 8
  store ptr %0, ptr %2, align 8
  %3 = load ptr, ptr %2, align 8
  %4 = getelementptr i8, ptr %3, i64 0
  %5 = load i8, ptr %4, align 1
  %6 = zext i8 %5 to i16
  %7 = zext i16 %6 to i32
  %8 = shl i32 %7, 8
  %9 = load ptr, ptr %2, align 8
  %10 = getelementptr i8, ptr %9, i64 1
  %11 = load i8, ptr %10, align 1
  %12 = zext i8 %11 to i16
  %13 = zext i16 %12 to i32
  %14 = shl i32 %13, 0
  %15 = or i32 %8, %14
  %16 = trunc i32 %15 to i16
  ret i16 %16
}

; Function Attrs: nounwind null_pointer_is_valid sspstrong uwtable
define internal void @sll2_set_unused_info(ptr noundef %0) #8 {
  %2 = alloca ptr, align 8
  %3 = alloca i32, align 4
  %4 = alloca i32, align 4
  store ptr %0, ptr %2, align 8
  call void @llvm.lifetime.start.p0(i64 4, ptr %3) #14
  %5 = load ptr, ptr %2, align 8
  %6 = getelementptr i8, ptr %5, i64 11
  %7 = load i8, ptr %6, align 1
  %8 = zext i8 %7 to i32
  store i32 %8, ptr %3, align 4
  %9 = load i32, ptr %3, align 4
  %10 = icmp ult i32 %9, 8
  br i1 %10, label %11, label %23

11:                                               ; preds = %1
  call void @llvm.lifetime.start.p0(i64 4, ptr %4) #14
  %12 = load i32, ptr %3, align 4
  %13 = sub i32 8, %12
  store i32 %13, ptr %4, align 4
  %14 = load ptr, ptr %2, align 8
  %15 = getelementptr i8, ptr %14, i64 12
  %16 = load i32, ptr %3, align 4
  %17 = zext i32 %16 to i64
  %18 = getelementptr i8, ptr %15, i64 %17
  store ptr %18, ptr %2, align 8
  %19 = load ptr, ptr %2, align 8
  %20 = load i32, ptr %4, align 4
  %21 = sext i32 %20 to i64
  %22 = call ptr @memset.inline(ptr noundef %19, i32 noundef 0, i64 noundef %21) #14
  call void @llvm.lifetime.end.p0(i64 4, ptr %4) #14
  br label %23

23:                                               ; preds = %11, %1
  call void @llvm.lifetime.end.p0(i64 4, ptr %3) #14
  ret void
}

; Function Attrs: null_pointer_is_valid sspstrong uwtable
define internal void @sll_set_unused_info(ptr noundef %0) #0 {
  %2 = alloca ptr, align 8
  %3 = alloca i32, align 4
  %4 = alloca i32, align 4
  store ptr %0, ptr %2, align 8
  call void @llvm.lifetime.start.p0(i64 4, ptr %3) #14
  %5 = load ptr, ptr %2, align 8
  %6 = getelementptr i8, ptr %5, i64 4
  %7 = call zeroext i16 @pntoh16(ptr noundef %6)
  %8 = zext i16 %7 to i32
  store i32 %8, ptr %3, align 4
  %9 = load i32, ptr %3, align 4
  %10 = icmp ult i32 %9, 8
  br i1 %10, label %11, label %23

11:                                               ; preds = %1
  call void @llvm.lifetime.start.p0(i64 4, ptr %4) #14
  %12 = load i32, ptr %3, align 4
  %13 = sub i32 8, %12
  store i32 %13, ptr %4, align 4
  %14 = load ptr, ptr %2, align 8
  %15 = getelementptr i8, ptr %14, i64 6
  %16 = load i32, ptr %3, align 4
  %17 = zext i32 %16 to i64
  %18 = getelementptr i8, ptr %15, i64 %17
  store ptr %18, ptr %2, align 8
  %19 = load ptr, ptr %2, align 8
  %20 = load i32, ptr %4, align 4
  %21 = sext i32 %20 to i64
  %22 = call ptr @memset.inline(ptr noundef %19, i32 noundef 0, i64 noundef %21) #14
  call void @llvm.lifetime.end.p0(i64 4, ptr %4) #14
  br label %23

23:                                               ; preds = %11, %1
  call void @llvm.lifetime.end.p0(i64 4, ptr %3) #14
  ret void
}

; Function Attrs: null_pointer_is_valid sspstrong uwtable
define internal void @set_unused_info(ptr noundef %0, ptr noundef %1) #0 {
  %3 = alloca ptr, align 8
  %4 = alloca ptr, align 8
  store ptr %0, ptr %3, align 8
  store ptr %1, ptr %4, align 8
  %5 = load ptr, ptr %3, align 8
  %6 = getelementptr inbounds nuw %struct.wtap_packet_header, ptr %5, i32 0, i32 2
  %7 = load i32, ptr %6, align 8
  switch i32 %7, label %12 [
    i32 25, label %8
    i32 210, label %10
  ]

8:                                                ; preds = %2
  %9 = load ptr, ptr %4, align 8
  call void @sll_set_unused_info(ptr noundef %9)
  br label %13

10:                                               ; preds = %2
  %11 = load ptr, ptr %4, align 8
  call void @sll2_set_unused_info(ptr noundef %11)
  br label %13

12:                                               ; preds = %2
  br label %13

13:                                               ; preds = %12, %10, %8
  ret void
}