; Function Attrs: nofree nounwind null_pointer_is_valid sspstrong memory(argmem: readwrite) uwtable
define internal fastcc void @set_unused_info(i32 %.8.val, ptr noundef %0) unnamed_addr #14 {
  switch i32 %.8.val, label %sll_set_unused_info.exit [
    i32 25, label %2
    i32 210, label %15
  ]

2:                                                ; preds = %1
  %3 = getelementptr i8, ptr %0, i64 4
  %.val.i = load i8, ptr %3, align 1
  %4 = getelementptr i8, ptr %0, i64 5
  %.val6.i = load i8, ptr %4, align 1
  %5 = zext i8 %.val.i to i16
  %6 = shl nuw i16 %5, 8
  %7 = zext i8 %.val6.i to i16
  %8 = or disjoint i16 %6, %7
  %9 = icmp ult i16 %8, 8
  br i1 %9, label %10, label %sll_set_unused_info.exit

10:                                               ; preds = %2
  %narrow.i = sub nuw nsw i16 8, %8
  %11 = getelementptr i8, ptr %0, i64 6
  %12 = zext nneg i16 %8 to i64
  %13 = getelementptr i8, ptr %11, i64 %12
  %14 = zext nneg i16 %narrow.i to i64
  tail call void @llvm.memset.p0.i64(ptr noundef align 1 %13, i8 noundef 0, i64 noundef range(i64 1, 313) %14, i1 noundef false) #21
  br label %sll_set_unused_info.exit

15:                                               ; preds = %1
  %16 = getelementptr i8, ptr %0, i64 11
  %17 = load i8, ptr %16, align 1
  %18 = icmp ult i8 %17, 8
  br i1 %18, label %19, label %sll_set_unused_info.exit

19:                                               ; preds = %15
  %narrow.i3 = sub nuw nsw i8 8, %17
  %20 = getelementptr i8, ptr %0, i64 12
  %21 = zext nneg i8 %17 to i64
  %22 = getelementptr i8, ptr %20, i64 %21
  %23 = zext nneg i8 %narrow.i3 to i64
  tail call void @llvm.memset.p0.i64(ptr noundef align 1 %22, i8 noundef 0, i64 noundef range(i64 1, 313) %23, i1 noundef false) #21
  br label %sll_set_unused_info.exit

sll_set_unused_info.exit:                         ; preds = %19, %15, %10, %2, %1
  ret void
}